; Function Attrs: nounwind uwtable
define ptr @l_Lean_Server_References_findAt(ptr noundef readonly captures(none) %0, ptr noundef %1, ptr noundef %2, i8 noundef zeroext %3) local_unnamed_addr #0 {
  %5 = tail call ptr @l_Lean_Server_References_getModuleRefs_x3f(ptr noundef %0, ptr noundef %1)
  %6 = ptrtoint ptr %5 to i64
  %7 = and i64 %6, 1
  %.not.i22 = icmp eq i64 %7, 0
  br i1 %.not.i22, label %11, label %8

8:                                                ; preds = %4
  %9 = lshr i64 %6, 1
  %10 = trunc i64 %9 to i32
  br label %lean_obj_tag.exit

11:                                               ; preds = %4
  %12 = getelementptr i8, ptr %5, i64 4
  %.val.i = load i32, ptr %12, align 4
  %13 = lshr i32 %.val.i, 24
  br label %lean_obj_tag.exit

lean_obj_tag.exit:                                ; preds = %8, %11
  %.0.i = phi i32 [ %10, %8 ], [ %13, %11 ]
  %14 = icmp eq i32 %.0.i, 0
  br i1 %14, label %15, label %26

15:                                               ; preds = %lean_obj_tag.exit
  %16 = ptrtoint ptr %2 to i64
  %17 = and i64 %16, 1
  %.not31 = icmp eq i64 %17, 0
  br i1 %.not31, label %18, label %lean_dec.exit17

18:                                               ; preds = %15
  %19 = load i32, ptr %2, align 4, !tbaa !8
  %20 = icmp sgt i32 %19, 1
  br i1 %20, label %21, label %23, !prof !11

21:                                               ; preds = %18
  %22 = add nsw i32 %19, -1
  store i32 %22, ptr %2, align 4, !tbaa !8
  br label %lean_dec.exit17

23:                                               ; preds = %18
  %.not.i = icmp eq i32 %19, 0
  br i1 %.not.i, label %lean_dec.exit17, label %24

24:                                               ; preds = %23
  tail call void @lean_dec_ref_cold(ptr noundef nonnull %2) #8
  br label %lean_dec.exit17

lean_dec.exit17:                                  ; preds = %24, %23, %21, %15
  %25 = load ptr, ptr @l_Lean_Server_References_findAt___closed__2, align 8, !tbaa !4
  br label %l_Lean_Lsp_ModuleRefs_findAt.exit

26:                                               ; preds = %lean_obj_tag.exit
  %27 = getelementptr inbounds nuw i8, ptr %5, i64 8
  %28 = load ptr, ptr %27, align 8, !tbaa !4
  %29 = ptrtoint ptr %28 to i64
  %30 = and i64 %29, 1
  %.not = icmp eq i64 %30, 0
  br i1 %.not, label %31, label %lean_inc.exit15

31:                                               ; preds = %26
  %.val.i23 = load i32, ptr %28, align 4, !tbaa !8
  %32 = icmp sgt i32 %.val.i23, 0
  br i1 %32, label %33, label %35, !prof !11

33:                                               ; preds = %31
  %34 = add nuw i32 %.val.i23, 1
  store i32 %34, ptr %28, align 4, !tbaa !8
  br label %lean_inc.exit15

35:                                               ; preds = %31
  %.not.i24 = icmp eq i32 %.val.i23, 0
  br i1 %.not.i24, label %lean_inc.exit15, label %36

36:                                               ; preds = %35
  tail call void @lean_inc_ref_cold(ptr noundef nonnull %28) #8
  br label %lean_inc.exit15

lean_inc.exit15:                                  ; preds = %36, %35, %33, %26
  br i1 %.not.i22, label %37, label %lean_dec.exit16

37:                                               ; preds = %lean_inc.exit15
  %38 = load i32, ptr %5, align 4, !tbaa !8
  %39 = icmp sgt i32 %38, 1
  br i1 %39, label %40, label %42, !prof !11

40:                                               ; preds = %37
  %41 = add nsw i32 %38, -1
  store i32 %41, ptr %5, align 4, !tbaa !8
  br label %lean_dec.exit16

42:                                               ; preds = %37
  %.not.i18 = icmp eq i32 %38, 0
  br i1 %.not.i18, label %lean_dec.exit16, label %43

43:                                               ; preds = %42
  tail call void @lean_dec_ref_cold(ptr noundef nonnull %5) #8
  br label %lean_dec.exit16

lean_dec.exit16:                                  ; preds = %43, %42, %40, %lean_inc.exit15
  %44 = getelementptr inbounds nuw i8, ptr %28, i64 16
  %45 = load ptr, ptr %44, align 8, !tbaa !4
  %46 = ptrtoint ptr %45 to i64
  %47 = and i64 %46, 1
  %.not30 = icmp eq i64 %47, 0
  br i1 %.not30, label %48, label %lean_inc.exit

48:                                               ; preds = %lean_dec.exit16
  %.val.i25 = load i32, ptr %45, align 4, !tbaa !8
  %49 = icmp sgt i32 %.val.i25, 0
  br i1 %49, label %50, label %52, !prof !11

50:                                               ; preds = %48
  %51 = add nuw i32 %.val.i25, 1
  store i32 %51, ptr %45, align 4, !tbaa !8
  br label %lean_inc.exit

52:                                               ; preds = %48
  %.not.i26 = icmp eq i32 %.val.i25, 0
  br i1 %.not.i26, label %lean_inc.exit, label %53

53:                                               ; preds = %52
  tail call void @lean_inc_ref_cold(ptr noundef nonnull %45) #8
  br label %lean_inc.exit

lean_inc.exit:                                    ; preds = %53, %52, %50, %lean_dec.exit16
  br i1 %.not, label %54, label %lean_dec.exit

54:                                               ; preds = %lean_inc.exit
  %55 = load i32, ptr %28, align 4, !tbaa !8
  %56 = icmp sgt i32 %55, 1
  br i1 %56, label %57, label %59, !prof !11

57:                                               ; preds = %54
  %58 = add nsw i32 %55, -1
  store i32 %58, ptr %28, align 4, !tbaa !8
  br label %lean_dec.exit

59:                                               ; preds = %54
  %.not.i20 = icmp eq i32 %55, 0
  br i1 %.not.i20, label %lean_dec.exit, label %60

60:                                               ; preds = %59
  tail call void @lean_dec_ref_cold(ptr noundef nonnull %28) #8
  br label %lean_dec.exit

lean_dec.exit:                                    ; preds = %60, %59, %57, %lean_inc.exit
  %61 = load ptr, ptr @l_Lean_Server_RefInfo_empty___closed__1, align 8, !tbaa !4
  %62 = tail call ptr @l_Std_DTreeMap_Internal_Impl_forInStep___at_Lean_Lsp_ModuleRefs_findAt___spec__1(ptr noundef %2, i8 noundef zeroext %3, ptr noundef %61, ptr noundef %45)
  %63 = getelementptr inbounds nuw i8, ptr %62, i64 8
  %64 = load ptr, ptr %63, align 8, !tbaa !4
  %65 = ptrtoint ptr %64 to i64
  %66 = and i64 %65, 1
  %.not.i28 = icmp eq i64 %66, 0
  br i1 %.not.i28, label %67, label %lean_inc.exit.i

67:                                               ; preds = %lean_dec.exit
  %.val.i.i = load i32, ptr %64, align 4, !tbaa !8
  %68 = icmp sgt i32 %.val.i.i, 0
  br i1 %68, label %69, label %71, !prof !11

69:                                               ; preds = %67
  %70 = add nuw i32 %.val.i.i, 1
  store i32 %70, ptr %64, align 4, !tbaa !8
  br label %lean_inc.exit.i

71:                                               ; preds = %67
  %.not.i7.i = icmp eq i32 %.val.i.i, 0
  br i1 %.not.i7.i, label %lean_inc.exit.i, label %72

72:                                               ; preds = %71
  tail call void @lean_inc_ref_cold(ptr noundef nonnull %64) #8
  br label %lean_inc.exit.i

lean_inc.exit.i:                                  ; preds = %72, %71, %69, %lean_dec.exit
  %73 = ptrtoint ptr %62 to i64
  %74 = and i64 %73, 1
  %.not8.i = icmp eq i64 %74, 0
  br i1 %.not8.i, label %75, label %l_Lean_Lsp_ModuleRefs_findAt.exit

75:                                               ; preds = %lean_inc.exit.i
  %76 = load i32, ptr %62, align 4, !tbaa !8
  %77 = icmp sgt i32 %76, 1
  br i1 %77, label %78, label %80, !prof !11

78:                                               ; preds = %75
  %79 = add nsw i32 %76, -1
  store i32 %79, ptr %62, align 4, !tbaa !8
  br label %l_Lean_Lsp_ModuleRefs_findAt.exit

80:                                               ; preds = %75
  %.not.i.i = icmp eq i32 %76, 0
  br i1 %.not.i.i, label %l_Lean_Lsp_ModuleRefs_findAt.exit, label %81

81:                                               ; preds = %80
  tail call void @lean_dec_ref_cold(ptr noundef nonnull %62) #8
  br label %l_Lean_Lsp_ModuleRefs_findAt.exit

l_Lean_Lsp_ModuleRefs_findAt.exit:                ; preds = %81, %80, %78, %lean_inc.exit.i, %lean_dec.exit17
  %.0 = phi ptr [ %25, %lean_dec.exit17 ], [ %64, %lean_inc.exit.i ], [ %64, %78 ], [ %64, %80 ], [ %64, %81 ]
  ret ptr %.0
}